; Function Attrs: mustprogress uwtable
define hidden void @_ZN2dd11pdd_manager6mk_valERK8rational(ptr dead_on_unwind noalias writable writeonly sret(%"class.dd::pdd") align 8 captures(none) initializes((0, 4), (8, 16)) %0, ptr noundef nonnull align 8 dereferenceable(952) %1, ptr noundef nonnull align 8 dereferenceable(32) %2) local_unnamed_addr #3 align 2 {
  %4 = tail call noundef i32 @_ZN2dd11pdd_manager7imk_valERK8rational(ptr noundef nonnull align 8 dereferenceable(952) %1, ptr noundef nonnull align 8 dereferenceable(32) %2)
  store i32 %4, ptr %0, align 8, !tbaa !119
  %5 = getelementptr inbounds nuw i8, ptr %0, i64 8
  store ptr %1, ptr %5, align 8, !tbaa !122
  %6 = load ptr, ptr %1, align 8, !tbaa !91
  %7 = zext i32 %4 to i64
  %8 = getelementptr inbounds nuw %"struct.dd::pdd_manager::node", ptr %6, i64 %7
  %9 = load i32, ptr %8, align 4
  %10 = and i32 %9, 1023
  %.not.i.i = icmp eq i32 %10, 1023
  br i1 %.not.i.i, label %_ZN2dd3pddC2EjPNS_11pdd_managerE.exit, label %11

11:                                               ; preds = %3
  %12 = add i32 %9, 1
  %13 = and i32 %12, 1023
  %14 = and i32 %9, -1024
  %15 = or disjoint i32 %13, %14
  store i32 %15, ptr %8, align 4
  br label %_ZN2dd3pddC2EjPNS_11pdd_managerE.exit

_ZN2dd3pddC2EjPNS_11pdd_managerE.exit:            ; preds = %3, %11
  ret void
}